target datalayout = "e-m:e-p270:32:32-p271:32:32-p272:64:64-i64:64-i128:128-f80:128-n8:16:32:64-S128"
target triple = "x86_64-pc-linux-gnu"

%struct.VLC = type { i32, ptr, i32, i32 }

; Function Attrs: cold nounwind optsize uwtable
define void @ff_vlc_init_table_from_lengths(ptr noundef %0, i32 noundef %1, i32 noundef %2, i32 noundef %3, ptr noundef %4, i32 noundef %5, ptr noundef %6, i32 noundef %7, i32 noundef %8, i32 noundef %9, i32 noundef %10) #6 {
  %12 = alloca ptr, align 8
  %13 = alloca i32, align 4
  %14 = alloca i32, align 4
  %15 = alloca i32, align 4
  %16 = alloca ptr, align 8
  %17 = alloca i32, align 4
  %18 = alloca ptr, align 8
  %19 = alloca i32, align 4
  %20 = alloca i32, align 4
  %21 = alloca i32, align 4
  %22 = alloca i32, align 4
  %23 = alloca %struct.VLC, align 8
  store ptr %0, ptr %12, align 8, !tbaa !45
  store i32 %1, ptr %13, align 4, !tbaa !9
  store i32 %2, ptr %14, align 4, !tbaa !9
  store i32 %3, ptr %15, align 4, !tbaa !9
  store ptr %4, ptr %16, align 8, !tbaa !14
  store i32 %5, ptr %17, align 4, !tbaa !9
  store ptr %6, ptr %18, align 8, !tbaa !11
  store i32 %7, ptr %19, align 4, !tbaa !9
  store i32 %8, ptr %20, align 4, !tbaa !9
  store i32 %9, ptr %21, align 4, !tbaa !9
  store i32 %10, ptr %22, align 4, !tbaa !9
  call void @llvm.lifetime.start.p0(i64 24, ptr %23) #8
  %24 = getelementptr inbounds nuw %struct.VLC, ptr %23, i32 0, i32 0
  store i32 0, ptr %24, align 8, !tbaa !36
  %25 = getelementptr i8, ptr %23, i64 4
  call void @llvm.memset.p0.i64(ptr align 4 %25, i8 0, i64 4, i1 false)
  %26 = getelementptr inbounds nuw %struct.VLC, ptr %23, i32 0, i32 1
  %27 = load ptr, ptr %12, align 8, !tbaa !45
  store ptr %27, ptr %26, align 8, !tbaa !40
  %28 = getelementptr inbounds nuw %struct.VLC, ptr %23, i32 0, i32 2
  store i32 0, ptr %28, align 8, !tbaa !39
  %29 = getelementptr inbounds nuw %struct.VLC, ptr %23, i32 0, i32 3
  %30 = load i32, ptr %13, align 4, !tbaa !9
  store i32 %30, ptr %29, align 4, !tbaa !41
  %31 = load i32, ptr %14, align 4, !tbaa !9
  %32 = load i32, ptr %15, align 4, !tbaa !9
  %33 = load ptr, ptr %16, align 8, !tbaa !14
  %34 = load i32, ptr %17, align 4, !tbaa !9
  %35 = load ptr, ptr %18, align 8, !tbaa !11
  %36 = load i32, ptr %19, align 4, !tbaa !9
  %37 = load i32, ptr %20, align 4, !tbaa !9
  %38 = load i32, ptr %21, align 4, !tbaa !9
  %39 = load i32, ptr %22, align 4, !tbaa !9
  %40 = or i32 %39, 1
  %41 = call i32 @ff_vlc_init_from_lengths(ptr noundef %23, i32 noundef %31, i32 noundef %32, ptr noundef %33, i32 noundef %34, ptr noundef %35, i32 noundef %36, i32 noundef %37, i32 noundef %38, i32 noundef %40, ptr noundef null)
  call void @llvm.lifetime.end.p0(i64 24, ptr %23) #8
  ret void
}