; Function Attrs: cold nounwind optsize uwtable
define void @ff_vlc_init_table_from_lengths(ptr noundef %0, i32 noundef %1, i32 noundef %2, i32 noundef %3, ptr noundef readonly captures(none) %4, i32 noundef %5, ptr noundef readonly captures(address_is_null) %6, i32 noundef %7, i32 noundef %8, i32 noundef %9, i32 noundef %10) local_unnamed_addr #4 {
  %12 = alloca %struct.VLC, align 8
  call void @llvm.lifetime.start.p0(i64 24, ptr nonnull %12) #8
  store i32 0, ptr %12, align 8, !tbaa !4
  %13 = getelementptr inbounds nuw i8, ptr %12, i64 4
  store i32 0, ptr %13, align 4
  %14 = getelementptr inbounds nuw i8, ptr %12, i64 8
  store ptr %0, ptr %14, align 8, !tbaa !12
  %15 = getelementptr inbounds nuw i8, ptr %12, i64 16
  store i32 0, ptr %15, align 8, !tbaa !11
  %16 = getelementptr inbounds nuw i8, ptr %12, i64 20
  store i32 %1, ptr %16, align 4, !tbaa !13
  %17 = or i32 %10, 1
  %18 = call i32 @ff_vlc_init_from_lengths(ptr noundef nonnull %12, i32 noundef %2, i32 noundef %3, ptr noundef %4, i32 noundef %5, ptr noundef %6, i32 noundef %7, i32 noundef %8, i32 noundef %9, i32 noundef %17, ptr noundef null)
  call void @llvm.lifetime.end.p0(i64 24, ptr nonnull %12) #8
  ret void
}